; Function Attrs: nounwind uwtable
define dso_local void @ginendscan(ptr noundef readonly captures(none) %0) local_unnamed_addr #0 {
  %2 = getelementptr inbounds nuw i8, ptr %0, i64 56
  %3 = load ptr, ptr %2, align 8
  tail call void @ginFreeScanKeys(ptr noundef %3)
  %4 = load ptr, ptr %3, align 8
  tail call void @MemoryContextDelete(ptr noundef %4) #7
  %5 = getelementptr inbounds nuw i8, ptr %3, i64 9696
  %6 = load ptr, ptr %5, align 8
  tail call void @MemoryContextDelete(ptr noundef %6) #7
  tail call void @pfree(ptr noundef nonnull %3) #7
  ret void
}